target datalayout = "e-m:e-p270:32:32-p271:32:32-p272:64:64-i64:64-i128:128-f80:128-n8:16:32:64-S128"
target triple = "x86_64-pc-linux-gnu"

%struct.SDL_AtomicInt = type { i32 }
%struct.SDL_Window = type { i32, ptr, ptr, i32, i32, i32, i32, i32, i32, i32, i32, float, float, i32, i32, i64, i64, float, i8, i8, i32, i32, %struct.SDL_Rect, %struct.SDL_Rect, %struct.SDL_Rect, i8, i8, i8, %struct.SDL_DisplayMode, %struct.SDL_DisplayMode, %struct.SDL_HDROutputProperties, float, ptr, i8, i8, i8, i8, i8, i8, i8, i8, i8, i32, i32, i32, i32, %struct.SDL_Rect, i32, i8, %struct.SDL_Rect, i32, %struct.SDL_Rect, ptr, ptr, i32, float, i32, i32, ptr, ptr, ptr, ptr, ptr, ptr, ptr, ptr, ptr }
%struct.SDL_DisplayMode = type { i32, i32, i32, i32, float, float, i32, i32, ptr }
%struct.SDL_HDROutputProperties = type { float, float }
%struct.SDL_Rect = type { i32, i32, i32, i32 }
%struct.SDL_VideoDevice = type { ptr, ptr, ptr, ptr, ptr, ptr, ptr, ptr, ptr, ptr, ptr, ptr, ptr, ptr, ptr, ptr, ptr, ptr, ptr, ptr, ptr, ptr, ptr, ptr, ptr, ptr, ptr, ptr, ptr, ptr, ptr, ptr, ptr, ptr, ptr, ptr, ptr, ptr, ptr, ptr, ptr, ptr, ptr, ptr, ptr, ptr, ptr, ptr, ptr, ptr, ptr, ptr, ptr, ptr, ptr, ptr, ptr, ptr, ptr, ptr, ptr, ptr, ptr, ptr, ptr, ptr, ptr, ptr, ptr, ptr, ptr, ptr, ptr, ptr, ptr, ptr, ptr, ptr, ptr, ptr, ptr, ptr, ptr, ptr, ptr, ptr, ptr, ptr, ptr, ptr, ptr, ptr, ptr, ptr, ptr, ptr, ptr, i64, i8, i8, i8, ptr, i32, ptr, %struct.SDL_Rect, ptr, ptr, i32, ptr, ptr, ptr, ptr, i64, ptr, i8, i32, i32, %struct.anon, ptr, ptr, ptr, ptr, ptr, ptr, %struct.SDL_AtomicInt, %struct.SDL_AtomicInt, i8, %struct.anon.0, ptr, ptr, ptr, ptr, ptr }
%struct.anon = type { i32, i32, i32, i32, i32, i32, i32, i32, i32, i32, i32, i32, i32, i32, i32, i32, i32, i32, i32, i32, i32, i32, i32, i32, i32, i32, i32, i32, i32, [256 x i8], ptr }
%struct.anon.0 = type { ptr, ptr, i32, [256 x i8], ptr }

@.str.1 = private unnamed_addr constant [41 x i8] c"Video subsystem has not been initialized\00", align 1
@_this = internal global ptr null, align 8
@.str.20 = private unnamed_addr constant [15 x i8] c"Invalid window\00", align 1
@.str.22 = private unnamed_addr constant [35 x i8] c"Operation invalid on popup windows\00", align 1
@.str.23 = private unnamed_addr constant [32 x i8] c"Invalid fullscreen display mode\00", align 1
@syncHint = internal global i8 0, align 1

; Function Attrs: nounwind uwtable
define hidden zeroext i1 @SDL_SyncWindow_REAL(ptr noundef %0) #0 {
  %2 = alloca i1, align 1
  %3 = alloca ptr, align 8
  store ptr %0, ptr %3, align 8
  %4 = load ptr, ptr @_this, align 8
  %5 = icmp ne ptr %4, null
  br i1 %5, label %8, label %6

6:                                                ; preds = %1
  %7 = call zeroext i1 @SDL_UninitializedVideo()
  store i1 false, ptr %2, align 1
  br label %26

8:                                                ; preds = %1
  %9 = load ptr, ptr %3, align 8
  %10 = call zeroext i1 @SDL_ObjectValid(ptr noundef %9, i32 noundef 1)
  br i1 %10, label %13, label %11

11:                                               ; preds = %8
  %12 = call zeroext i1 (ptr, ...) @SDL_SetError_REAL(ptr noundef @.str.20)
  store i1 false, ptr %2, align 1
  br label %26

13:                                               ; preds = %8
  %14 = load ptr, ptr @_this, align 8
  %15 = getelementptr inbounds nuw %struct.SDL_VideoDevice, ptr %14, i32 0, i32 49
  %16 = load ptr, ptr %15, align 8
  %17 = icmp ne ptr %16, null
  br i1 %17, label %18, label %25

18:                                               ; preds = %13
  %19 = load ptr, ptr @_this, align 8
  %20 = getelementptr inbounds nuw %struct.SDL_VideoDevice, ptr %19, i32 0, i32 49
  %21 = load ptr, ptr %20, align 8
  %22 = load ptr, ptr @_this, align 8
  %23 = load ptr, ptr %3, align 8
  %24 = call zeroext i1 %21(ptr noundef %22, ptr noundef %23)
  store i1 %24, ptr %2, align 1
  br label %26

25:                                               ; preds = %13
  store i1 true, ptr %2, align 1
  br label %26

26:                                               ; preds = %25, %18, %11, %6
  %27 = load i1, ptr %2, align 1
  ret i1 %27
}

; Function Attrs: nounwind uwtable
define internal void @SDL_SyncIfRequired(ptr noundef %0) #0 {
  %2 = alloca ptr, align 8
  store ptr %0, ptr %2, align 8
  %3 = load i8, ptr @syncHint, align 1, !range !5, !noundef !6
  %4 = trunc i8 %3 to i1
  br i1 %4, label %5, label %8

5:                                                ; preds = %1
  %6 = load ptr, ptr %2, align 8
  %7 = call zeroext i1 @SDL_SyncWindow_REAL(ptr noundef %6)
  br label %8

8:                                                ; preds = %5, %1
  ret void
}

; Function Attrs: nounwind uwtable
define hidden zeroext i1 @SDL_UninitializedVideo() #0 {
  %1 = call zeroext i1 (ptr, ...) @SDL_SetError_REAL(ptr noundef @.str.1)
  ret i1 %1
}

; Function Attrs: nounwind uwtable
define hidden zeroext i1 @SDL_SetWindowFullscreenMode_REAL(ptr noundef %0, ptr noundef %1) #0 {
  %3 = alloca i1, align 1
  %4 = alloca ptr, align 8
  %5 = alloca ptr, align 8
  store ptr %0, ptr %4, align 8
  store ptr %1, ptr %5, align 8
  %6 = load ptr, ptr @_this, align 8
  %7 = icmp ne ptr %6, null
  br i1 %7, label %10, label %8

8:                                                ; preds = %2
  %9 = call zeroext i1 @SDL_UninitializedVideo()
  store i1 false, ptr %3, align 1
  br label %66

10:                                               ; preds = %2
  %11 = load ptr, ptr %4, align 8
  %12 = call zeroext i1 @SDL_ObjectValid(ptr noundef %11, i32 noundef 1)
  br i1 %12, label %15, label %13

13:                                               ; preds = %10
  %14 = call zeroext i1 (ptr, ...) @SDL_SetError_REAL(ptr noundef @.str.20)
  store i1 false, ptr %3, align 1
  br label %66

15:                                               ; preds = %10
  %16 = load ptr, ptr %4, align 8
  %17 = getelementptr inbounds nuw %struct.SDL_Window, ptr %16, i32 0, i32 15
  %18 = load i64, ptr %17, align 8
  %19 = and i64 %18, 786432
  %20 = icmp ne i64 %19, 0
  br i1 %20, label %21, label %23

21:                                               ; preds = %15
  %22 = call zeroext i1 (ptr, ...) @SDL_SetError_REAL(ptr noundef @.str.22)
  store i1 false, ptr %3, align 1
  br label %66

23:                                               ; preds = %15
  %24 = load ptr, ptr %5, align 8
  %25 = icmp ne ptr %24, null
  br i1 %25, label %26, label %36

26:                                               ; preds = %23
  %27 = load ptr, ptr %5, align 8
  %28 = call ptr @SDL_GetFullscreenModeMatch(ptr noundef %27)
  %29 = icmp ne ptr %28, null
  br i1 %29, label %32, label %30

30:                                               ; preds = %26
  %31 = call zeroext i1 (ptr, ...) @SDL_SetError_REAL(ptr noundef @.str.23)
  store i1 %31, ptr %3, align 1
  br label %66

32:                                               ; preds = %26
  %33 = load ptr, ptr %4, align 8
  %34 = getelementptr inbounds nuw %struct.SDL_Window, ptr %33, i32 0, i32 28
  %35 = load ptr, ptr %5, align 8
  call void @llvm.memcpy.p0.p0.i64(ptr align 8 %34, ptr align 8 %35, i64 40, i1 false)
  br label %39

36:                                               ; preds = %23
  %37 = load ptr, ptr %4, align 8
  %38 = getelementptr inbounds nuw %struct.SDL_Window, ptr %37, i32 0, i32 28
  call void @llvm.memset.p0.i64(ptr align 8 %38, i8 0, i64 40, i1 false)
  br label %39

39:                                               ; preds = %36, %32
  %40 = load ptr, ptr %4, align 8
  %41 = getelementptr inbounds nuw %struct.SDL_Window, ptr %40, i32 0, i32 29
  %42 = load ptr, ptr %4, align 8
  %43 = getelementptr inbounds nuw %struct.SDL_Window, ptr %42, i32 0, i32 28
  call void @llvm.memcpy.p0.p0.i64(ptr align 8 %41, ptr align 8 %43, i64 40, i1 false)
  %44 = load ptr, ptr %4, align 8
  %45 = getelementptr inbounds nuw %struct.SDL_Window, ptr %44, i32 0, i32 15
  %46 = load i64, ptr %45, align 8
  %47 = and i64 %46, 1
  %48 = icmp ne i64 %47, 0
  br i1 %48, label %49, label %65

49:                                               ; preds = %39
  %50 = load ptr, ptr %4, align 8
  %51 = getelementptr inbounds nuw %struct.SDL_Window, ptr %50, i32 0, i32 15
  %52 = load i64, ptr %51, align 8
  %53 = and i64 %52, 8
  %54 = icmp eq i64 %53, 0
  br i1 %54, label %55, label %65

55:                                               ; preds = %49
  %56 = load ptr, ptr %4, align 8
  %57 = getelementptr inbounds nuw %struct.SDL_Window, ptr %56, i32 0, i32 15
  %58 = load i64, ptr %57, align 8
  %59 = and i64 %58, 64
  %60 = icmp eq i64 %59, 0
  br i1 %60, label %61, label %65

61:                                               ; preds = %55
  %62 = load ptr, ptr %4, align 8
  %63 = call zeroext i1 @SDL_UpdateFullscreenMode(ptr noundef %62, i32 noundef 2, i1 noundef zeroext true)
  %64 = load ptr, ptr %4, align 8
  call void @SDL_SyncIfRequired(ptr noundef %64)
  br label %65

65:                                               ; preds = %61, %55, %49, %39
  store i1 true, ptr %3, align 1
  br label %66

66:                                               ; preds = %65, %30, %21, %13, %8
  %67 = load i1, ptr %3, align 1
  ret i1 %67
}