; Function Attrs: nounwind uwtable
define hidden zeroext i1 @SDL_SetWindowFullscreenMode_REAL(ptr noundef %0, ptr noundef readonly captures(address_is_null) %1) local_unnamed_addr #0 {
  %3 = load ptr, ptr @_this, align 8
  %.not = icmp eq ptr %3, null
  br i1 %.not, label %4, label %6

4:                                                ; preds = %2
  %5 = tail call zeroext i1 (ptr, ...) @SDL_SetError_REAL(ptr noundef nonnull @.str.1) #19
  br label %SDL_SyncIfRequired.exit

6:                                                ; preds = %2
  %7 = tail call zeroext i1 @SDL_ObjectValid(ptr noundef %0, i32 noundef 1) #19
  br i1 %7, label %10, label %8

8:                                                ; preds = %6
  %9 = tail call zeroext i1 (ptr, ...) @SDL_SetError_REAL(ptr noundef nonnull @.str.20) #19
  br label %SDL_SyncIfRequired.exit

10:                                               ; preds = %6
  %11 = getelementptr inbounds nuw i8, ptr %0, i64 72
  %12 = load i64, ptr %11, align 8
  %13 = and i64 %12, 786432
  %.not16 = icmp eq i64 %13, 0
  br i1 %.not16, label %16, label %14

14:                                               ; preds = %10
  %15 = tail call zeroext i1 (ptr, ...) @SDL_SetError_REAL(ptr noundef nonnull @.str.22) #19
  br label %SDL_SyncIfRequired.exit

16:                                               ; preds = %10
  %.not17 = icmp eq ptr %1, null
  br i1 %.not17, label %23, label %17

17:                                               ; preds = %16
  %18 = tail call fastcc ptr @SDL_GetFullscreenModeMatch(ptr noundef nonnull %1)
  %.not18 = icmp eq ptr %18, null
  br i1 %.not18, label %19, label %21

19:                                               ; preds = %17
  %20 = tail call zeroext i1 (ptr, ...) @SDL_SetError_REAL(ptr noundef nonnull @.str.23) #19
  br label %SDL_SyncIfRequired.exit

21:                                               ; preds = %17
  %22 = getelementptr inbounds nuw i8, ptr %0, i64 160
  tail call void @llvm.memcpy.p0.p0.i64(ptr noundef nonnull align 8 dereferenceable(40) %22, ptr noundef nonnull align 8 dereferenceable(40) %1, i64 40, i1 false)
  %.pre = load i64, ptr %11, align 8
  br label %25

23:                                               ; preds = %16
  %24 = getelementptr inbounds nuw i8, ptr %0, i64 160
  tail call void @llvm.memset.p0.i64(ptr noundef nonnull align 8 dereferenceable(40) %24, i8 0, i64 40, i1 false)
  br label %25

25:                                               ; preds = %23, %21
  %26 = phi i64 [ %12, %23 ], [ %.pre, %21 ]
  %27 = getelementptr inbounds nuw i8, ptr %0, i64 200
  %28 = getelementptr inbounds nuw i8, ptr %0, i64 160
  tail call void @llvm.memcpy.p0.p0.i64(ptr noundef nonnull align 8 dereferenceable(40) %27, ptr noundef nonnull align 8 dereferenceable(40) %28, i64 40, i1 false)
  %29 = and i64 %26, 73
  %or.cond22 = icmp eq i64 %29, 1
  br i1 %or.cond22, label %30, label %SDL_SyncIfRequired.exit

30:                                               ; preds = %25
  %31 = tail call zeroext i1 @SDL_UpdateFullscreenMode(ptr noundef nonnull %0, i32 noundef 2, i1 noundef zeroext true)
  %32 = load i8, ptr @syncHint, align 1, !range !6, !noundef !7
  %33 = trunc nuw i8 %32 to i1
  br i1 %33, label %34, label %SDL_SyncIfRequired.exit

34:                                               ; preds = %30
  %35 = load ptr, ptr @_this, align 8
  %.not.i.i = icmp eq ptr %35, null
  br i1 %.not.i.i, label %36, label %38

36:                                               ; preds = %34
  %37 = tail call zeroext i1 (ptr, ...) @SDL_SetError_REAL(ptr noundef nonnull @.str.1) #19
  br label %SDL_SyncIfRequired.exit

38:                                               ; preds = %34
  %39 = tail call zeroext i1 @SDL_ObjectValid(ptr noundef nonnull %0, i32 noundef 1) #19
  br i1 %39, label %42, label %40

40:                                               ; preds = %38
  %41 = tail call zeroext i1 (ptr, ...) @SDL_SetError_REAL(ptr noundef nonnull @.str.20) #19
  br label %SDL_SyncIfRequired.exit

42:                                               ; preds = %38
  %43 = load ptr, ptr @_this, align 8
  %44 = getelementptr inbounds nuw i8, ptr %43, i64 392
  %45 = load ptr, ptr %44, align 8
  %.not4.i.i = icmp eq ptr %45, null
  br i1 %.not4.i.i, label %SDL_SyncIfRequired.exit, label %46

46:                                               ; preds = %42
  %47 = tail call zeroext i1 %45(ptr noundef nonnull %43, ptr noundef nonnull %0) #19
  br label %SDL_SyncIfRequired.exit

SDL_SyncIfRequired.exit:                          ; preds = %46, %42, %40, %36, %30, %25, %19, %14, %8, %4
  %.0 = phi i1 [ false, %14 ], [ %20, %19 ], [ false, %8 ], [ false, %4 ], [ true, %25 ], [ true, %30 ], [ true, %36 ], [ true, %40 ], [ true, %42 ], [ true, %46 ]
  ret i1 %.0
}